; Function Attrs: mustprogress nofree norecurse nosync nounwind willreturn memory(argmem: readwrite) uwtable
define noundef zeroext i1 @_ZN5Yosys14DriveChunkPort10try_appendERKNS_12DriveBitPortE(ptr noundef nonnull align 8 captures(none) dereferenceable(20) %0, ptr noundef nonnull readonly align 8 captures(none) dereferenceable(16) %1) local_unnamed_addr #9 align 2 {
  %3 = load ptr, ptr %1, align 8, !tbaa !35
  %4 = load ptr, ptr %0, align 8, !tbaa !61
  %5 = icmp eq ptr %3, %4
  br i1 %5, label %6, label %_ZNK5Yosys14DriveChunkPort10can_appendERKNS_12DriveBitPortE.exit.thread

6:                                                ; preds = %2
  %7 = getelementptr inbounds nuw i8, ptr %1, i64 8
  %8 = getelementptr inbounds nuw i8, ptr %0, i64 8
  %9 = load i32, ptr %7, align 8, !tbaa !39
  %10 = load i32, ptr %8, align 8, !tbaa !39
  %11 = icmp eq i32 %9, %10
  br i1 %11, label %_ZNK5Yosys14DriveChunkPort10can_appendERKNS_12DriveBitPortE.exit, label %_ZNK5Yosys14DriveChunkPort10can_appendERKNS_12DriveBitPortE.exit.thread

_ZNK5Yosys14DriveChunkPort10can_appendERKNS_12DriveBitPortE.exit: ; preds = %6
  %12 = getelementptr inbounds nuw i8, ptr %1, i64 12
  %13 = load i32, ptr %12, align 4, !tbaa !40
  %14 = getelementptr inbounds nuw i8, ptr %0, i64 12
  %15 = load i32, ptr %14, align 4, !tbaa !66
  %16 = getelementptr inbounds nuw i8, ptr %0, i64 16
  %17 = load i32, ptr %16, align 8, !tbaa !78
  %18 = add nsw i32 %17, %15
  %19 = icmp eq i32 %13, %18
  br i1 %19, label %20, label %_ZNK5Yosys14DriveChunkPort10can_appendERKNS_12DriveBitPortE.exit.thread

20:                                               ; preds = %_ZNK5Yosys14DriveChunkPort10can_appendERKNS_12DriveBitPortE.exit
  %21 = add nsw i32 %17, 1
  store i32 %21, ptr %16, align 8, !tbaa !78
  br label %_ZNK5Yosys14DriveChunkPort10can_appendERKNS_12DriveBitPortE.exit.thread

_ZNK5Yosys14DriveChunkPort10can_appendERKNS_12DriveBitPortE.exit.thread: ; preds = %2, %6, %_ZNK5Yosys14DriveChunkPort10can_appendERKNS_12DriveBitPortE.exit, %20
  %22 = phi i1 [ false, %_ZNK5Yosys14DriveChunkPort10can_appendERKNS_12DriveBitPortE.exit ], [ true, %20 ], [ false, %6 ], [ false, %2 ]
  ret i1 %22
}